target datalayout = "e-m:e-p270:32:32-p271:32:32-p272:64:64-i64:64-i128:128-f80:128-n8:16:32:64-S128"
target triple = "x86_64-pc-linux-gnu"

%"struct.Luau::NotNull" = type { ptr }
%"struct.Luau::NotNull.0" = type { ptr }
%"struct.Luau::NotNull.1" = type { ptr }
%"struct.Luau::NotNull.2" = type { ptr }
%"struct.std::pair" = type { ptr, ptr }
%"struct.std::pair.13" = type { ptr, ptr }
%"struct.Luau::Unifier2" = type { %"struct.Luau::NotNull", %"struct.Luau::NotNull.0", %"struct.Luau::NotNull.1", %"struct.Luau::NotNull.2", %"struct.Luau::TypeCheckLimits", %"class.Luau::DenseHashSet", %"class.Luau::DenseHashSet.11", %"class.Luau::DenseHashMap", %"class.Luau::DenseHashMap.18", %"class.Luau::DenseHashMap.21", i32, i32, %"class.std::vector", ptr }
%"struct.Luau::TypeCheckLimits" = type { %"class.std::optional", %"class.std::optional.3", %"class.std::optional.3", %"class.std::shared_ptr" }
%"class.std::optional" = type { %"struct.std::_Optional_base" }
%"struct.std::_Optional_base" = type { %"struct.std::_Optional_payload" }
%"struct.std::_Optional_payload" = type { %"struct.std::_Optional_payload_base.base", [7 x i8] }
%"struct.std::_Optional_payload_base.base" = type <{ %"union.std::_Optional_payload_base<double>::_Storage", i8 }>
%"union.std::_Optional_payload_base<double>::_Storage" = type { double }
%"class.std::optional.3" = type { %"struct.std::_Optional_base.4" }
%"struct.std::_Optional_base.4" = type { %"struct.std::_Optional_payload.6" }
%"struct.std::_Optional_payload.6" = type { %"struct.std::_Optional_payload_base.base.8", [3 x i8] }
%"struct.std::_Optional_payload_base.base.8" = type <{ %"union.std::_Optional_payload_base<int>::_Storage", i8 }>
%"union.std::_Optional_payload_base<int>::_Storage" = type { i32 }
%"class.std::shared_ptr" = type { %"class.std::__shared_ptr" }
%"class.std::__shared_ptr" = type { ptr, %"class.std::__shared_count" }
%"class.std::__shared_count" = type { ptr }
%"class.Luau::DenseHashSet" = type { %"class.Luau::detail::DenseHashTable" }
%"class.Luau::detail::DenseHashTable" = type <{ ptr, i64, i64, %"struct.std::pair", [8 x i8] }>
%"class.Luau::DenseHashSet.11" = type { %"class.Luau::detail::DenseHashTable.12" }
%"class.Luau::detail::DenseHashTable.12" = type <{ ptr, i64, i64, %"struct.std::pair.13", [8 x i8] }>
%"class.Luau::DenseHashMap" = type { %"class.Luau::detail::DenseHashTable.16" }
%"class.Luau::detail::DenseHashTable.16" = type <{ ptr, i64, i64, ptr, [8 x i8] }>
%"class.Luau::DenseHashMap.18" = type { %"class.Luau::detail::DenseHashTable.19" }
%"class.Luau::detail::DenseHashTable.19" = type <{ ptr, i64, i64, ptr, [8 x i8] }>
%"class.Luau::DenseHashMap.21" = type { %"class.Luau::detail::DenseHashTable.22" }
%"class.Luau::detail::DenseHashTable.22" = type <{ ptr, i64, i64, ptr, [8 x i8] }>
%"class.std::vector" = type { %"struct.std::_Vector_base" }
%"struct.std::_Vector_base" = type { %"struct.std::_Vector_base<Luau::Variant<Luau::SubtypeConstraint, Luau::PackSubtypeConstraint, Luau::GeneralizationConstraint, Luau::IterableConstraint, Luau::NameConstraint, Luau::TypeAliasExpansionConstraint, Luau::FunctionCallConstraint, Luau::FunctionCheckConstraint, Luau::PrimitiveTypeConstraint, Luau::HasPropConstraint, Luau::HasIndexerConstraint, Luau::AssignPropConstraint, Luau::AssignIndexConstraint, Luau::UnpackConstraint, Luau::ReduceConstraint, Luau::ReducePackConstraint, Luau::EqualityConstraint, Luau::TableCheckConstraint>, std::allocator<Luau::Variant<Luau::SubtypeConstraint, Luau::PackSubtypeConstraint, Luau::GeneralizationConstraint, Luau::IterableConstraint, Luau::NameConstraint, Luau::TypeAliasExpansionConstraint, Luau::FunctionCallConstraint, Luau::FunctionCheckConstraint, Luau::PrimitiveTypeConstraint, Luau::HasPropConstraint, Luau::HasIndexerConstraint, Luau::AssignPropConstraint, Luau::AssignIndexConstraint, Luau::UnpackConstraint, Luau::ReduceConstraint, Luau::ReducePackConstraint, Luau::EqualityConstraint, Luau::TableCheckConstraint>>>::_Vector_impl" }
%"struct.std::_Vector_base<Luau::Variant<Luau::SubtypeConstraint, Luau::PackSubtypeConstraint, Luau::GeneralizationConstraint, Luau::IterableConstraint, Luau::NameConstraint, Luau::TypeAliasExpansionConstraint, Luau::FunctionCallConstraint, Luau::FunctionCheckConstraint, Luau::PrimitiveTypeConstraint, Luau::HasPropConstraint, Luau::HasIndexerConstraint, Luau::AssignPropConstraint, Luau::AssignIndexConstraint, Luau::UnpackConstraint, Luau::ReduceConstraint, Luau::ReducePackConstraint, Luau::EqualityConstraint, Luau::TableCheckConstraint>, std::allocator<Luau::Variant<Luau::SubtypeConstraint, Luau::PackSubtypeConstraint, Luau::GeneralizationConstraint, Luau::IterableConstraint, Luau::NameConstraint, Luau::TypeAliasExpansionConstraint, Luau::FunctionCallConstraint, Luau::FunctionCheckConstraint, Luau::PrimitiveTypeConstraint, Luau::HasPropConstraint, Luau::HasIndexerConstraint, Luau::AssignPropConstraint, Luau::AssignIndexConstraint, Luau::UnpackConstraint, Luau::ReduceConstraint, Luau::ReducePackConstraint, Luau::EqualityConstraint, Luau::TableCheckConstraint>>>::_Vector_impl" = type { %"struct.std::_Vector_base<Luau::Variant<Luau::SubtypeConstraint, Luau::PackSubtypeConstraint, Luau::GeneralizationConstraint, Luau::IterableConstraint, Luau::NameConstraint, Luau::TypeAliasExpansionConstraint, Luau::FunctionCallConstraint, Luau::FunctionCheckConstraint, Luau::PrimitiveTypeConstraint, Luau::HasPropConstraint, Luau::HasIndexerConstraint, Luau::AssignPropConstraint, Luau::AssignIndexConstraint, Luau::UnpackConstraint, Luau::ReduceConstraint, Luau::ReducePackConstraint, Luau::EqualityConstraint, Luau::TableCheckConstraint>, std::allocator<Luau::Variant<Luau::SubtypeConstraint, Luau::PackSubtypeConstraint, Luau::GeneralizationConstraint, Luau::IterableConstraint, Luau::NameConstraint, Luau::TypeAliasExpansionConstraint, Luau::FunctionCallConstraint, Luau::FunctionCheckConstraint, Luau::PrimitiveTypeConstraint, Luau::HasPropConstraint, Luau::HasIndexerConstraint, Luau::AssignPropConstraint, Luau::AssignIndexConstraint, Luau::UnpackConstraint, Luau::ReduceConstraint, Luau::ReducePackConstraint, Luau::EqualityConstraint, Luau::TableCheckConstraint>>>::_Vector_impl_data" }
%"struct.std::_Vector_base<Luau::Variant<Luau::SubtypeConstraint, Luau::PackSubtypeConstraint, Luau::GeneralizationConstraint, Luau::IterableConstraint, Luau::NameConstraint, Luau::TypeAliasExpansionConstraint, Luau::FunctionCallConstraint, Luau::FunctionCheckConstraint, Luau::PrimitiveTypeConstraint, Luau::HasPropConstraint, Luau::HasIndexerConstraint, Luau::AssignPropConstraint, Luau::AssignIndexConstraint, Luau::UnpackConstraint, Luau::ReduceConstraint, Luau::ReducePackConstraint, Luau::EqualityConstraint, Luau::TableCheckConstraint>, std::allocator<Luau::Variant<Luau::SubtypeConstraint, Luau::PackSubtypeConstraint, Luau::GeneralizationConstraint, Luau::IterableConstraint, Luau::NameConstraint, Luau::TypeAliasExpansionConstraint, Luau::FunctionCallConstraint, Luau::FunctionCheckConstraint, Luau::PrimitiveTypeConstraint, Luau::HasPropConstraint, Luau::HasIndexerConstraint, Luau::AssignPropConstraint, Luau::AssignIndexConstraint, Luau::UnpackConstraint, Luau::ReduceConstraint, Luau::ReducePackConstraint, Luau::EqualityConstraint, Luau::TableCheckConstraint>>>::_Vector_impl_data" = type { ptr, ptr, ptr }
%"struct.Luau::TypeLevel" = type { i32, i32 }
%"struct.Luau::FunctionType" = type <{ %"class.std::optional.27", %"class.std::vector.58", %"class.std::vector.63", %"class.std::vector.68", %"class.std::vector.73", %"struct.Luau::TypeLevel", ptr, ptr, ptr, %"class.std::shared_ptr.78", i8, i8, i8, [5 x i8] }>
%"class.std::optional.27" = type { %"struct.std::_Optional_base.28" }
%"struct.std::_Optional_base.28" = type { %"struct.std::_Optional_payload.30" }
%"struct.std::_Optional_payload.30" = type { %"struct.std::_Optional_payload.base.55", [7 x i8] }
%"struct.std::_Optional_payload.base.55" = type { %"struct.std::_Optional_payload_base.base.54" }
%"struct.std::_Optional_payload_base.base.54" = type <{ %"union.std::_Optional_payload_base<Luau::FunctionDefinition>::_Storage", i8 }>
%"union.std::_Optional_payload_base<Luau::FunctionDefinition>::_Storage" = type { %"struct.Luau::FunctionDefinition" }
%"struct.Luau::FunctionDefinition" = type { %"class.std::optional.33", %"struct.Luau::Location", %"class.std::optional.46", %"struct.Luau::Location", [4 x i8] }
%"class.std::optional.33" = type { %"struct.std::_Optional_base.34" }
%"struct.std::_Optional_base.34" = type { %"struct.std::_Optional_payload.36" }
%"struct.std::_Optional_payload.36" = type { %"struct.std::_Optional_payload.base.43", [7 x i8] }
%"struct.std::_Optional_payload.base.43" = type { %"struct.std::_Optional_payload_base.base.42" }
%"struct.std::_Optional_payload_base.base.42" = type <{ %"union.std::_Optional_payload_base<std::__cxx11::basic_string<char>>::_Storage", i8 }>
%"union.std::_Optional_payload_base<std::__cxx11::basic_string<char>>::_Storage" = type { %"class.std::__cxx11::basic_string" }
%"class.std::__cxx11::basic_string" = type { %"struct.std::__cxx11::basic_string<char>::_Alloc_hider", i64, %union.anon }
%"struct.std::__cxx11::basic_string<char>::_Alloc_hider" = type { ptr }
%union.anon = type { i64, [8 x i8] }
%"class.std::optional.46" = type { %"struct.std::_Optional_base.47" }
%"struct.std::_Optional_base.47" = type { %"struct.std::_Optional_payload.49" }
%"struct.std::_Optional_payload.49" = type { %"struct.std::_Optional_payload_base.base.51", [3 x i8] }
%"struct.std::_Optional_payload_base.base.51" = type <{ %"union.std::_Optional_payload_base<Luau::Location>::_Storage", i8 }>
%"union.std::_Optional_payload_base<Luau::Location>::_Storage" = type { %"struct.Luau::Location" }
%"struct.Luau::Location" = type { %"struct.Luau::Position", %"struct.Luau::Position" }
%"struct.Luau::Position" = type { i32, i32 }
%"class.std::vector.58" = type { %"struct.std::_Vector_base.59" }
%"struct.std::_Vector_base.59" = type { %"struct.std::_Vector_base<const Luau::Type *, std::allocator<const Luau::Type *>>::_Vector_impl" }
%"struct.std::_Vector_base<const Luau::Type *, std::allocator<const Luau::Type *>>::_Vector_impl" = type { %"struct.std::_Vector_base<const Luau::Type *, std::allocator<const Luau::Type *>>::_Vector_impl_data" }
%"struct.std::_Vector_base<const Luau::Type *, std::allocator<const Luau::Type *>>::_Vector_impl_data" = type { ptr, ptr, ptr }
%"class.std::vector.63" = type { %"struct.std::_Vector_base.64" }
%"struct.std::_Vector_base.64" = type { %"struct.std::_Vector_base<const Luau::TypePackVar *, std::allocator<const Luau::TypePackVar *>>::_Vector_impl" }
%"struct.std::_Vector_base<const Luau::TypePackVar *, std::allocator<const Luau::TypePackVar *>>::_Vector_impl" = type { %"struct.std::_Vector_base<const Luau::TypePackVar *, std::allocator<const Luau::TypePackVar *>>::_Vector_impl_data" }
%"struct.std::_Vector_base<const Luau::TypePackVar *, std::allocator<const Luau::TypePackVar *>>::_Vector_impl_data" = type { ptr, ptr, ptr }
%"class.std::vector.68" = type { %"struct.std::_Vector_base.69" }
%"struct.std::_Vector_base.69" = type { %"struct.std::_Vector_base<std::optional<Luau::FunctionArgument>, std::allocator<std::optional<Luau::FunctionArgument>>>::_Vector_impl" }
%"struct.std::_Vector_base<std::optional<Luau::FunctionArgument>, std::allocator<std::optional<Luau::FunctionArgument>>>::_Vector_impl" = type { %"struct.std::_Vector_base<std::optional<Luau::FunctionArgument>, std::allocator<std::optional<Luau::FunctionArgument>>>::_Vector_impl_data" }
%"struct.std::_Vector_base<std::optional<Luau::FunctionArgument>, std::allocator<std::optional<Luau::FunctionArgument>>>::_Vector_impl_data" = type { ptr, ptr, ptr }
%"class.std::vector.73" = type { %"struct.std::_Vector_base.74" }
%"struct.std::_Vector_base.74" = type { %"struct.std::_Vector_base<std::__cxx11::basic_string<char>, std::allocator<std::__cxx11::basic_string<char>>>::_Vector_impl" }
%"struct.std::_Vector_base<std::__cxx11::basic_string<char>, std::allocator<std::__cxx11::basic_string<char>>>::_Vector_impl" = type { %"struct.std::_Vector_base<std::__cxx11::basic_string<char>, std::allocator<std::__cxx11::basic_string<char>>>::_Vector_impl_data" }
%"struct.std::_Vector_base<std::__cxx11::basic_string<char>, std::allocator<std::__cxx11::basic_string<char>>>::_Vector_impl_data" = type { ptr, ptr, ptr }
%"class.std::shared_ptr.78" = type { %"class.std::__shared_ptr.79" }
%"class.std::__shared_ptr.79" = type { ptr, %"class.std::__shared_count" }
%"struct.Luau::BuiltinTypes" = type { %"class.std::unique_ptr", i8, ptr, ptr, ptr, ptr, ptr, ptr, ptr, ptr, ptr, ptr, ptr, ptr, ptr, ptr, ptr, ptr, ptr, ptr, ptr, ptr, ptr, ptr, ptr, ptr, ptr, ptr, ptr }
%"class.std::unique_ptr" = type { %"struct.std::__uniq_ptr_data" }
%"struct.std::__uniq_ptr_data" = type { %"class.std::__uniq_ptr_impl" }
%"class.std::__uniq_ptr_impl" = type { %"class.std::tuple" }
%"class.std::tuple" = type { %"struct.std::_Tuple_impl" }
%"struct.std::_Tuple_impl" = type { %"struct.std::_Head_base.82" }
%"struct.std::_Head_base.82" = type { ptr }

; Function Attrs: mustprogress nounwind uwtable
define linkonce_odr dso_local noundef ptr @_ZNK4Luau7NotNullINS_12BuiltinTypesEEptEv(ptr noundef nonnull align 8 dereferenceable(8) %0) #4 comdat align 2 {
  %2 = alloca ptr, align 8
  store ptr %0, ptr %2, align 8, !tbaa !227
  %3 = load ptr, ptr %2, align 8
  %4 = getelementptr inbounds nuw %"struct.Luau::NotNull.0", ptr %3, i32 0, i32 0
  %5 = load ptr, ptr %4, align 8, !tbaa !229
  ret ptr %5
}

; Function Attrs: mustprogress uwtable
define dso_local noundef zeroext i1 @_ZN4Luau8Unifier25unifyEPKNS_12FunctionTypeEPKNS_7AnyTypeE(ptr noundef nonnull align 8 dereferenceable(336) %0, ptr noundef %1, ptr noundef %2) #2 align 2 {
  %4 = alloca ptr, align 8
  %5 = alloca ptr, align 8
  %6 = alloca ptr, align 8
  %7 = alloca i8, align 1
  %8 = alloca i8, align 1
  store ptr %0, ptr %4, align 8, !tbaa !8
  store ptr %1, ptr %5, align 8, !tbaa !129
  store ptr %2, ptr %6, align 8, !tbaa !177
  %9 = load ptr, ptr %4, align 8
  call void @llvm.lifetime.start.p0(i64 1, ptr %7) #20
  %10 = getelementptr inbounds nuw %"struct.Luau::Unifier2", ptr %9, i32 0, i32 1
  %11 = call noundef ptr @_ZNK4Luau7NotNullINS_12BuiltinTypesEEptEv(ptr noundef nonnull align 8 dereferenceable(8) %10) #20
  %12 = getelementptr inbounds nuw %"struct.Luau::BuiltinTypes", ptr %11, i32 0, i32 24
  %13 = load ptr, ptr %12, align 8, !tbaa !230
  %14 = load ptr, ptr %5, align 8, !tbaa !129
  %15 = getelementptr inbounds nuw %"struct.Luau::FunctionType", ptr %14, i32 0, i32 7
  %16 = load ptr, ptr %15, align 8, !tbaa !137
  %17 = call noundef zeroext i1 @_ZN4Luau8Unifier25unifyEPKNS_11TypePackVarES3_(ptr noundef nonnull align 8 dereferenceable(336) %9, ptr noundef %13, ptr noundef %16)
  %18 = zext i1 %17 to i8
  store i8 %18, ptr %7, align 1, !tbaa !173
  call void @llvm.lifetime.start.p0(i64 1, ptr %8) #20
  %19 = load ptr, ptr %5, align 8, !tbaa !129
  %20 = getelementptr inbounds nuw %"struct.Luau::FunctionType", ptr %19, i32 0, i32 8
  %21 = load ptr, ptr %20, align 8, !tbaa !174
  %22 = getelementptr inbounds nuw %"struct.Luau::Unifier2", ptr %9, i32 0, i32 1
  %23 = call noundef ptr @_ZNK4Luau7NotNullINS_12BuiltinTypesEEptEv(ptr noundef nonnull align 8 dereferenceable(8) %22) #20
  %24 = getelementptr inbounds nuw %"struct.Luau::BuiltinTypes", ptr %23, i32 0, i32 24
  %25 = load ptr, ptr %24, align 8, !tbaa !230
  %26 = call noundef zeroext i1 @_ZN4Luau8Unifier25unifyEPKNS_11TypePackVarES3_(ptr noundef nonnull align 8 dereferenceable(336) %9, ptr noundef %21, ptr noundef %25)
  %27 = zext i1 %26 to i8
  store i8 %27, ptr %8, align 1, !tbaa !173
  %28 = load i8, ptr %7, align 1, !tbaa !173, !range !175, !noundef !176
  %29 = trunc i8 %28 to i1
  br i1 %29, label %30, label %33

30:                                               ; preds = %3
  %31 = load i8, ptr %8, align 1, !tbaa !173, !range !175, !noundef !176
  %32 = trunc i8 %31 to i1
  br label %33

33:                                               ; preds = %30, %3
  %34 = phi i1 [ false, %3 ], [ %32, %30 ]
  call void @llvm.lifetime.end.p0(i64 1, ptr %8) #20
  call void @llvm.lifetime.end.p0(i64 1, ptr %7) #20
  ret i1 %34
}