; Function Attrs: mustprogress uwtable
define dso_local noundef zeroext i1 @_ZN4Luau8Unifier25unifyEPKNS_12FunctionTypeEPKNS_7AnyTypeE(ptr noundef nonnull align 8 dereferenceable(336) %0, ptr noundef readonly captures(none) %1, ptr readnone captures(none) %2) local_unnamed_addr #4 align 2 {
  %4 = getelementptr inbounds nuw i8, ptr %0, i64 8
  %5 = load ptr, ptr %4, align 8, !tbaa !142
  %6 = getelementptr inbounds nuw i8, ptr %5, i64 192
  %7 = load ptr, ptr %6, align 8, !tbaa !202
  %8 = getelementptr inbounds nuw i8, ptr %1, i64 216
  %9 = load ptr, ptr %8, align 8, !tbaa !113
  %10 = tail call noundef zeroext i1 @_ZN4Luau8Unifier25unifyEPKNS_11TypePackVarES3_(ptr noundef nonnull align 8 dereferenceable(336) %0, ptr noundef %7, ptr noundef %9)
  %11 = getelementptr inbounds nuw i8, ptr %1, i64 224
  %12 = load ptr, ptr %11, align 8, !tbaa !151
  %13 = load ptr, ptr %4, align 8, !tbaa !142
  %14 = getelementptr inbounds nuw i8, ptr %13, i64 192
  %15 = load ptr, ptr %14, align 8, !tbaa !202
  %16 = tail call noundef zeroext i1 @_ZN4Luau8Unifier25unifyEPKNS_11TypePackVarES3_(ptr noundef nonnull align 8 dereferenceable(336) %0, ptr noundef %12, ptr noundef %15)
  %17 = and i1 %10, %16
  ret i1 %17
}